target datalayout = "e-m:e-p270:32:32-p271:32:32-p272:64:64-i64:64-i128:128-f80:128-n8:16:32:64-S128"
target triple = "x86_64-pc-linux-gnu"

%struct.lua_TValue = type { %union.Value, [1 x i32], i32 }
%union.Value = type { ptr }

; Function Attrs: inlinehint mustprogress nounwind uwtable
define linkonce_odr dso_local noundef float @_Z12luaui_clampffff(float noundef %0, float noundef %1, float noundef %2) #14 comdat {
  %4 = alloca float, align 4
  %5 = alloca float, align 4
  %6 = alloca float, align 4
  %7 = alloca float, align 4
  store float %0, ptr %4, align 4, !tbaa !70
  store float %1, ptr %5, align 4, !tbaa !70
  store float %2, ptr %6, align 4, !tbaa !70
  call void @llvm.lifetime.start.p0(i64 4, ptr %7) #17
  %8 = load float, ptr %4, align 4, !tbaa !70
  %9 = load float, ptr %5, align 4, !tbaa !70
  %10 = fcmp olt float %8, %9
  br i1 %10, label %11, label %13

11:                                               ; preds = %3
  %12 = load float, ptr %5, align 4, !tbaa !70
  br label %15

13:                                               ; preds = %3
  %14 = load float, ptr %4, align 4, !tbaa !70
  br label %15

15:                                               ; preds = %13, %11
  %16 = phi float [ %12, %11 ], [ %14, %13 ]
  store float %16, ptr %7, align 4, !tbaa !70
  %17 = load float, ptr %7, align 4, !tbaa !70
  %18 = load float, ptr %6, align 4, !tbaa !70
  %19 = fcmp ogt float %17, %18
  br i1 %19, label %20, label %22

20:                                               ; preds = %15
  %21 = load float, ptr %6, align 4, !tbaa !70
  br label %24

22:                                               ; preds = %15
  %23 = load float, ptr %7, align 4, !tbaa !70
  br label %24

24:                                               ; preds = %22, %20
  %25 = phi float [ %21, %20 ], [ %23, %22 ]
  call void @llvm.lifetime.end.p0(i64 4, ptr %7) #17
  ret float %25
}

; Function Attrs: mustprogress uwtable
define internal noundef i32 @_ZL17luauF_vectorclampP9lua_StateP10lua_TValueS2_iS2_i(ptr noundef %0, ptr noundef %1, ptr noundef %2, i32 noundef %3, ptr noundef %4, i32 noundef %5) #3 {
  %7 = alloca i32, align 4
  %8 = alloca ptr, align 8
  %9 = alloca ptr, align 8
  %10 = alloca ptr, align 8
  %11 = alloca i32, align 4
  %12 = alloca ptr, align 8
  %13 = alloca i32, align 4
  %14 = alloca ptr, align 8
  %15 = alloca ptr, align 8
  %16 = alloca ptr, align 8
  %17 = alloca ptr, align 8
  %18 = alloca ptr, align 8
  %19 = alloca i32, align 4
  store ptr %0, ptr %8, align 8, !tbaa !4
  store ptr %1, ptr %9, align 8, !tbaa !9
  store ptr %2, ptr %10, align 8, !tbaa !9
  store i32 %3, ptr %11, align 4, !tbaa !11
  store ptr %4, ptr %12, align 8, !tbaa !9
  store i32 %5, ptr %13, align 4, !tbaa !11
  %20 = load i32, ptr %13, align 4, !tbaa !11
  %21 = icmp sge i32 %20, 3
  br i1 %21, label %22, label %122

22:                                               ; preds = %6
  %23 = load i32, ptr %11, align 4, !tbaa !11
  %24 = icmp sle i32 %23, 1
  br i1 %24, label %25, label %122

25:                                               ; preds = %22
  %26 = load ptr, ptr %10, align 8, !tbaa !9
  %27 = getelementptr inbounds nuw %struct.lua_TValue, ptr %26, i32 0, i32 2
  %28 = load i32, ptr %27, align 4, !tbaa !13
  %29 = icmp eq i32 %28, 4
  br i1 %29, label %30, label %122

30:                                               ; preds = %25
  %31 = load ptr, ptr %12, align 8, !tbaa !9
  %32 = getelementptr inbounds nuw %struct.lua_TValue, ptr %31, i32 0, i32 2
  %33 = load i32, ptr %32, align 4, !tbaa !13
  %34 = icmp eq i32 %33, 4
  br i1 %34, label %35, label %122

35:                                               ; preds = %30
  %36 = load ptr, ptr %12, align 8, !tbaa !9
  %37 = getelementptr inbounds %struct.lua_TValue, ptr %36, i64 1
  %38 = getelementptr inbounds nuw %struct.lua_TValue, ptr %37, i32 0, i32 2
  %39 = load i32, ptr %38, align 4, !tbaa !13
  %40 = icmp eq i32 %39, 4
  br i1 %40, label %41, label %122

41:                                               ; preds = %35
  call void @llvm.lifetime.start.p0(i64 8, ptr %14) #17
  %42 = load ptr, ptr %10, align 8, !tbaa !9
  %43 = getelementptr inbounds nuw %struct.lua_TValue, ptr %42, i32 0, i32 0
  %44 = getelementptr inbounds [2 x float], ptr %43, i64 0, i64 0
  store ptr %44, ptr %14, align 8, !tbaa !72
  call void @llvm.lifetime.start.p0(i64 8, ptr %15) #17
  %45 = load ptr, ptr %12, align 8, !tbaa !9
  %46 = getelementptr inbounds nuw %struct.lua_TValue, ptr %45, i32 0, i32 0
  %47 = getelementptr inbounds [2 x float], ptr %46, i64 0, i64 0
  store ptr %47, ptr %15, align 8, !tbaa !72
  call void @llvm.lifetime.start.p0(i64 8, ptr %16) #17
  %48 = load ptr, ptr %12, align 8, !tbaa !9
  %49 = getelementptr inbounds %struct.lua_TValue, ptr %48, i64 1
  %50 = getelementptr inbounds nuw %struct.lua_TValue, ptr %49, i32 0, i32 0
  %51 = getelementptr inbounds [2 x float], ptr %50, i64 0, i64 0
  store ptr %51, ptr %16, align 8, !tbaa !72
  %52 = load ptr, ptr %15, align 8, !tbaa !72
  %53 = getelementptr inbounds float, ptr %52, i64 0
  %54 = load float, ptr %53, align 4, !tbaa !70
  %55 = load ptr, ptr %16, align 8, !tbaa !72
  %56 = getelementptr inbounds float, ptr %55, i64 0
  %57 = load float, ptr %56, align 4, !tbaa !70
  %58 = fcmp ole float %54, %57
  br i1 %58, label %59, label %118

59:                                               ; preds = %41
  %60 = load ptr, ptr %15, align 8, !tbaa !72
  %61 = getelementptr inbounds float, ptr %60, i64 1
  %62 = load float, ptr %61, align 4, !tbaa !70
  %63 = load ptr, ptr %16, align 8, !tbaa !72
  %64 = getelementptr inbounds float, ptr %63, i64 1
  %65 = load float, ptr %64, align 4, !tbaa !70
  %66 = fcmp ole float %62, %65
  br i1 %66, label %67, label %118

67:                                               ; preds = %59
  %68 = load ptr, ptr %15, align 8, !tbaa !72
  %69 = getelementptr inbounds float, ptr %68, i64 2
  %70 = load float, ptr %69, align 4, !tbaa !70
  %71 = load ptr, ptr %16, align 8, !tbaa !72
  %72 = getelementptr inbounds float, ptr %71, i64 2
  %73 = load float, ptr %72, align 4, !tbaa !70
  %74 = fcmp ole float %70, %73
  br i1 %74, label %75, label %118

75:                                               ; preds = %67
  call void @llvm.lifetime.start.p0(i64 8, ptr %17) #17
  %76 = load ptr, ptr %9, align 8, !tbaa !9
  store ptr %76, ptr %17, align 8, !tbaa !9
  call void @llvm.lifetime.start.p0(i64 8, ptr %18) #17
  %77 = load ptr, ptr %17, align 8, !tbaa !9
  %78 = getelementptr inbounds nuw %struct.lua_TValue, ptr %77, i32 0, i32 0
  %79 = getelementptr inbounds [2 x float], ptr %78, i64 0, i64 0
  store ptr %79, ptr %18, align 8, !tbaa !72
  %80 = load ptr, ptr %14, align 8, !tbaa !72
  %81 = getelementptr inbounds float, ptr %80, i64 0
  %82 = load float, ptr %81, align 4, !tbaa !70
  %83 = load ptr, ptr %15, align 8, !tbaa !72
  %84 = getelementptr inbounds float, ptr %83, i64 0
  %85 = load float, ptr %84, align 4, !tbaa !70
  %86 = load ptr, ptr %16, align 8, !tbaa !72
  %87 = getelementptr inbounds float, ptr %86, i64 0
  %88 = load float, ptr %87, align 4, !tbaa !70
  %89 = call noundef float @_Z12luaui_clampffff(float noundef %82, float noundef %85, float noundef %88)
  %90 = load ptr, ptr %18, align 8, !tbaa !72
  %91 = getelementptr inbounds float, ptr %90, i64 0
  store float %89, ptr %91, align 4, !tbaa !70
  %92 = load ptr, ptr %14, align 8, !tbaa !72
  %93 = getelementptr inbounds float, ptr %92, i64 1
  %94 = load float, ptr %93, align 4, !tbaa !70
  %95 = load ptr, ptr %15, align 8, !tbaa !72
  %96 = getelementptr inbounds float, ptr %95, i64 1
  %97 = load float, ptr %96, align 4, !tbaa !70
  %98 = load ptr, ptr %16, align 8, !tbaa !72
  %99 = getelementptr inbounds float, ptr %98, i64 1
  %100 = load float, ptr %99, align 4, !tbaa !70
  %101 = call noundef float @_Z12luaui_clampffff(float noundef %94, float noundef %97, float noundef %100)
  %102 = load ptr, ptr %18, align 8, !tbaa !72
  %103 = getelementptr inbounds float, ptr %102, i64 1
  store float %101, ptr %103, align 4, !tbaa !70
  %104 = load ptr, ptr %14, align 8, !tbaa !72
  %105 = getelementptr inbounds float, ptr %104, i64 2
  %106 = load float, ptr %105, align 4, !tbaa !70
  %107 = load ptr, ptr %15, align 8, !tbaa !72
  %108 = getelementptr inbounds float, ptr %107, i64 2
  %109 = load float, ptr %108, align 4, !tbaa !70
  %110 = load ptr, ptr %16, align 8, !tbaa !72
  %111 = getelementptr inbounds float, ptr %110, i64 2
  %112 = load float, ptr %111, align 4, !tbaa !70
  %113 = call noundef float @_Z12luaui_clampffff(float noundef %106, float noundef %109, float noundef %112)
  %114 = load ptr, ptr %18, align 8, !tbaa !72
  %115 = getelementptr inbounds float, ptr %114, i64 2
  store float %113, ptr %115, align 4, !tbaa !70
  %116 = load ptr, ptr %17, align 8, !tbaa !9
  %117 = getelementptr inbounds nuw %struct.lua_TValue, ptr %116, i32 0, i32 2
  store i32 4, ptr %117, align 4, !tbaa !13
  call void @llvm.lifetime.end.p0(i64 8, ptr %18) #17
  call void @llvm.lifetime.end.p0(i64 8, ptr %17) #17
  store i32 1, ptr %7, align 4
  store i32 1, ptr %19, align 4
  br label %119

118:                                              ; preds = %67, %59, %41
  store i32 0, ptr %19, align 4
  br label %119

119:                                              ; preds = %118, %75
  call void @llvm.lifetime.end.p0(i64 8, ptr %16) #17
  call void @llvm.lifetime.end.p0(i64 8, ptr %15) #17
  call void @llvm.lifetime.end.p0(i64 8, ptr %14) #17
  %120 = load i32, ptr %19, align 4
  switch i32 %120, label %125 [
    i32 0, label %121
    i32 1, label %123
  ]

121:                                              ; preds = %119
  br label %122

122:                                              ; preds = %121, %35, %30, %25, %22, %6
  store i32 -1, ptr %7, align 4
  br label %123

123:                                              ; preds = %122, %119
  %124 = load i32, ptr %7, align 4
  ret i32 %124

125:                                              ; preds = %119
  unreachable
}