; Function Attrs: mustprogress nofree norecurse nosync nounwind willreturn memory(argmem: readwrite) uwtable
define internal noundef range(i32 -1, 2) i32 @_ZL17luauF_vectorclampP9lua_StateP10lua_TValueS2_iS2_i(ptr readnone captures(none) %0, ptr noundef writeonly captures(none) %1, ptr noundef readonly captures(none) %2, i32 noundef %3, ptr noundef readonly captures(none) %4, i32 noundef %5) #1 {
  %7 = icmp sgt i32 %5, 2
  %8 = icmp slt i32 %3, 2
  %or.cond = and i1 %8, %7
  br i1 %or.cond, label %9, label %.thread

9:                                                ; preds = %6
  %10 = getelementptr inbounds nuw i8, ptr %2, i64 12
  %11 = load i32, ptr %10, align 4, !tbaa !4
  %12 = icmp eq i32 %11, 4
  br i1 %12, label %13, label %.thread

13:                                               ; preds = %9
  %14 = getelementptr inbounds nuw i8, ptr %4, i64 12
  %15 = load i32, ptr %14, align 4, !tbaa !4
  %16 = icmp eq i32 %15, 4
  br i1 %16, label %17, label %.thread

17:                                               ; preds = %13
  %18 = getelementptr inbounds nuw i8, ptr %4, i64 28
  %19 = load i32, ptr %18, align 4, !tbaa !4
  %20 = icmp eq i32 %19, 4
  br i1 %20, label %21, label %.thread

21:                                               ; preds = %17
  %22 = getelementptr inbounds nuw i8, ptr %4, i64 16
  %23 = load float, ptr %4, align 4, !tbaa !51
  %24 = load float, ptr %22, align 4, !tbaa !51
  %25 = fcmp ugt float %23, %24
  br i1 %25, label %.thread, label %26

26:                                               ; preds = %21
  %27 = getelementptr inbounds nuw i8, ptr %4, i64 4
  %28 = load float, ptr %27, align 4, !tbaa !51
  %29 = getelementptr inbounds nuw i8, ptr %4, i64 20
  %30 = load float, ptr %29, align 4, !tbaa !51
  %31 = fcmp ugt float %28, %30
  br i1 %31, label %.thread, label %32

32:                                               ; preds = %26
  %33 = getelementptr inbounds nuw i8, ptr %4, i64 8
  %34 = load float, ptr %33, align 4, !tbaa !51
  %35 = getelementptr inbounds nuw i8, ptr %4, i64 24
  %36 = load float, ptr %35, align 4, !tbaa !51
  %37 = fcmp ugt float %34, %36
  br i1 %37, label %.thread, label %38

38:                                               ; preds = %32
  %39 = load float, ptr %2, align 4, !tbaa !51
  %40 = fcmp olt float %39, %23
  %41 = select i1 %40, float %23, float %39
  %42 = fcmp ogt float %41, %24
  %43 = select i1 %42, float %24, float %41
  store float %43, ptr %1, align 4, !tbaa !51
  %44 = getelementptr inbounds nuw i8, ptr %2, i64 4
  %45 = load float, ptr %44, align 4, !tbaa !51
  %46 = load float, ptr %27, align 4, !tbaa !51
  %47 = load float, ptr %29, align 4, !tbaa !51
  %48 = fcmp olt float %45, %46
  %49 = select i1 %48, float %46, float %45
  %50 = fcmp ogt float %49, %47
  %51 = select i1 %50, float %47, float %49
  %52 = getelementptr inbounds nuw i8, ptr %1, i64 4
  store float %51, ptr %52, align 4, !tbaa !51
  %53 = getelementptr inbounds nuw i8, ptr %2, i64 8
  %54 = load float, ptr %53, align 4, !tbaa !51
  %55 = load float, ptr %33, align 4, !tbaa !51
  %56 = load float, ptr %35, align 4, !tbaa !51
  %57 = fcmp olt float %54, %55
  %58 = select i1 %57, float %55, float %54
  %59 = fcmp ogt float %58, %56
  %60 = select i1 %59, float %56, float %58
  %61 = getelementptr inbounds nuw i8, ptr %1, i64 8
  store float %60, ptr %61, align 4, !tbaa !51
  %62 = getelementptr inbounds nuw i8, ptr %1, i64 12
  store i32 4, ptr %62, align 4, !tbaa !4
  br label %.thread

.thread:                                          ; preds = %21, %26, %32, %6, %9, %13, %17, %38
  %.1 = phi i32 [ 1, %38 ], [ -1, %17 ], [ -1, %13 ], [ -1, %9 ], [ -1, %6 ], [ -1, %32 ], [ -1, %26 ], [ -1, %21 ]
  ret i32 %.1
}